Certificate:
    Data:
        Version: 3 (0x2)
        Serial Number: 1 (0x1)
    Signature Algorithm: ecdsa-with-SHA256
        Issuer: DC=io, DC=integration-test, C=DE, ST=Utopia, O=DC/OS, OU=Brogrammer Unit, CN=Integration Test Root CA
        Validity
            Not Before: Feb 17 17:16:35 2017 GMT
            Not After : Feb 17 17:16:35 2020 GMT
        Subject: DC=io, DC=integration-test, C=DE, ST=Utopia, O=DC/OS, OU=Brogrammer Unit, CN=Integration Test Root CA
        Subject Public Key Info:
            Public Key Algorithm: id-ecPublicKey
                Public-Key: (256 bit)
                pub: 
                    04:07:06:80:8c:9d:72:be:8b:bf:92:9c:65:90:f0:
                    32:20:72:70:8c:35:33:12:c4:a1:a7:2f:dd:94:5b:
                    fe:e1:e0:e2:40:c7:9b:66:1b:95:c3:f4:d3:1b:44:
                    2f:2d:a0:d7:fb:1f:73:1b:e3:3a:02:ad:bf:c5:2b:
                    bb:4e:65:0d:49
                ASN1 OID: secp256k1
        X509v3 extensions:
            X509v3 Subject Key Identifier: 
                5C:FA:6B:44:2A:E8:40:11:FB:06:DF:46:76:5D:62:6E:7F:52:50:9C
            X509v3 Authority Key Identifier: 
                keyid:5C:FA:6B:44:2A:E8:40:11:FB:06:DF:46:76:5D:62:6E:7F:52:50:9C

            X509v3 Basic Constraints: critical
                CA:TRUE
            X509v3 Key Usage: critical
                Digital Signature, Certificate Sign, CRL Sign
    Signature Algorithm: ecdsa-with-SHA256
         30:45:02:21:00:a1:6b:54:4c:cf:93:e4:33:a4:75:9b:11:19:
         82:25:fd:31:b7:0f:ac:17:8b:4e:10:d7:9a:62:45:13:ea:f2:
         cd:02:20:50:33:46:72:32:96:97:da:f6:c0:05:59:29:fe:19:
         96:82:b3:9d:d3:44:80:28:07:4d:5b:d5:15:f3:b4:62:fb
-----BEGIN CERTIFICATE-----
MIICkzCCAjmgAwIBAgIBATAKBggqhkjOPQQDAjCBoTESMBAGCgmSJomT8ixkARkW
AmlvMSAwHgYKCZImiZPyLGQBGRYQaW50ZWdyYXRpb24tdGVzdDELMAkGA1UEBhMC
REUxDzANBgNVBAgMBlV0b3BpYTEOMAwGA1UECgwFREMvT1MxGDAWBgNVBAsMD0Jy
b2dyYW1tZXIgVW5pdDEhMB8GA1UEAwwYSW50ZWdyYXRpb24gVGVzdCBSb290IENB
MB4XDTE3MDIxNzE3MTYzNVoXDTIwMDIxNzE3MTYzNVowgaExEjAQBgoJkiaJk/Is
ZAEZFgJpbzEgMB4GCgmSJomT8ixkARkWEGludGVncmF0aW9uLXRlc3QxCzAJBgNV
BAYTAkRFMQ8wDQYDVQQIDAZVdG9waWExDjAMBgNVBAoMBURDL09TMRgwFgYDVQQL
DA9Ccm9ncmFtbWVyIFVuaXQxITAfBgNVBAMMGEludGVncmF0aW9uIFRlc3QgUm9v
dCBDQTBWMBAGByqGSM49AgEGBSuBBAAKA0IABAcGgIydcr6Lv5KcZZDwMiBycIw1
MxLEoacv3ZRb/uHg4kDHm2YblcP00xtELy2g1/sfcxvjOgKtv8Uru05lDUmjYzBh
MB0GA1UdDgQWBBRc+mtEKuhAEfsG30Z2XWJuf1JQnDAfBgNVHSMEGDAWgBRc+mtE
KuhAEfsG30Z2XWJuf1JQnDAPBgNVHRMBAf8EBTADAQH/MA4GA1UdDwEB/wQEAwIB
hjAKBggqhkjOPQQDAgNIADBFAiEAoWtUTM+T5DOkdZsRGYIl/TG3D6wXi04Q15pi
RRPq8s0CIFAzRnIylpfa9sAFWSn+GZaCs53TRIAoB01b1RXztGL7
-----END CERTIFICATE-----
