Certificate:
    Data:
        Version: 3 (0x2)
        Serial Number: 2 (0x2)
    Signature Algorithm: sha256WithRSAEncryption
        Issuer: DC=io, DC=integration-test, C=DE, ST=Utopia, O=DC/OS, OU=Brogrammer Unit, CN=Integration Test Root CA
        Validity
            Not Before: Feb 15 20:28:00 2017 GMT
            Not After : Feb 15 20:28:00 2020 GMT
        Subject: DC=io, DC=integration-test, C=DE, ST=Utopia, O=DC/OS, OU=Brogrammer Unit, CN=Integration Test Intermediate CA 01
        Subject Public Key Info:
            Public Key Algorithm: rsaEncryption
                Public-Key: (4096 bit)
                Modulus:
                    00:c5:19:e1:21:2b:33:86:d9:fb:3e:94:77:05:75:
                    29:89:48:f0:26:5a:b4:e4:f2:50:5c:6b:54:51:16:
                    62:b6:d7:d8:a2:6a:51:b1:34:78:09:28:de:e0:12:
                    6f:ae:be:4d:9e:59:ef:dd:e0:32:73:2f:9d:c3:15:
                    3d:49:81:0a:fe:aa:9c:fe:04:8f:17:6a:1d:c7:21:
                    f3:e4:5e:3d:62:30:75:8d:66:db:ed:53:a2:2c:d1:
                    c5:e1:e5:b6:2d:11:07:b5:49:a2:4f:b0:66:2f:db:
                    04:6b:2a:5c:54:9a:82:8b:d5:9b:0d:d9:69:ec:8a:
                    41:5b:99:ab:c1:8e:92:83:72:75:16:14:61:03:67:
                    44:9b:c3:a9:91:a5:f9:e5:c1:af:2a:35:c8:b6:21:
                    18:d3:f4:53:c9:c0:a8:6c:57:61:ce:7c:17:c3:88:
                    80:33:14:53:d3:67:2f:4f:1e:be:9a:0a:be:fc:bc:
                    8d:56:c5:68:bf:d1:95:3c:24:83:2a:aa:29:71:54:
                    6f:37:6b:72:b5:d6:8c:64:bd:b2:b3:97:63:43:a8:
                    cf:ab:32:90:7e:19:ed:7a:a1:8e:5e:e4:7b:d3:5c:
                    56:b7:bc:16:c3:72:87:21:2a:88:81:7b:04:f8:a4:
                    a9:b2:6c:ad:88:6a:61:f8:b9:c0:6b:95:ac:a7:2f:
                    bc:c6:9a:1e:0e:87:86:c5:99:79:cc:ed:ff:dc:bb:
                    c1:f2:b3:cd:f2:57:e3:02:15:3d:e5:96:ac:cd:14:
                    fe:37:07:68:bd:66:af:b3:d2:f9:ad:c8:56:03:8b:
                    29:dd:fb:cb:02:16:9c:de:ff:32:c9:69:b2:8a:99:
                    c2:85:ac:52:98:e6:5a:ad:5c:55:18:b1:7c:3d:81:
                    f0:ae:c3:0b:41:cb:b8:5d:e9:53:da:ee:23:cc:e8:
                    9b:7f:9c:49:3f:12:d3:87:5c:83:22:95:68:22:34:
                    34:b0:0e:47:bb:0d:7e:09:e5:4d:95:1e:53:5a:56:
                    86:74:fe:e1:e5:75:99:f3:fd:26:49:47:2d:bf:14:
                    d6:35:dd:d2:6d:48:49:ee:66:5c:bc:91:8e:0f:85:
                    89:5b:d1:12:0f:eb:e8:0d:b3:bf:dd:dc:bd:1e:6c:
                    5a:11:cf:3d:1e:53:4c:96:c8:54:cf:47:30:9a:2c:
                    f5:9d:f7:45:db:60:aa:67:5e:a7:d4:46:b9:2e:d1:
                    86:46:ce:cf:2b:d6:b4:2c:14:e9:8c:5d:d5:20:9b:
                    db:d4:cc:ca:6b:36:f5:75:28:90:6b:da:74:f7:94:
                    2b:a3:15:0a:2f:bf:79:b7:75:f8:5e:f8:7c:87:39:
                    60:f5:c4:18:2d:4a:45:f0:01:70:9a:09:42:fc:5d:
                    3b:29:e7
                Exponent: 65537 (0x10001)
        X509v3 extensions:
            X509v3 Subject Key Identifier: 
                69:B2:58:0F:45:C8:F2:62:04:D3:09:14:A8:04:FE:89:B0:A2:A0:CE
            X509v3 Authority Key Identifier: 
                keyid:CD:7B:01:55:3F:39:01:A3:FB:49:D4:FE:32:38:4E:42:49:62:3A:29

            X509v3 Basic Constraints: critical
                CA:TRUE, pathlen:1
            X509v3 Key Usage: critical
                Digital Signature, Certificate Sign, CRL Sign
    Signature Algorithm: sha256WithRSAEncryption
         01:83:f2:13:79:6a:67:06:42:4f:d6:c8:17:e6:50:ea:b8:14:
         5c:4b:a0:54:1e:93:3b:fc:c0:d9:14:11:95:69:e5:6a:65:3b:
         64:f9:14:65:e2:0d:f2:8a:f7:2b:ea:d5:33:88:a9:ae:9c:3a:
         db:16:0b:d2:9a:9d:ea:8c:b4:94:1d:b1:eb:ba:19:91:36:11:
         e3:8e:13:4b:6d:7a:04:90:50:e2:2c:d1:24:c5:d2:11:59:e6:
         12:55:ad:3a:e2:49:af:6d:53:05:7e:94:f4:a2:99:31:5c:94:
         86:07:22:9c:1d:6b:28:9a:72:1d:d8:29:0e:a6:b9:c5:58:29:
         73:b4:ac:1d:b3:6f:47:5e:b8:e5:91:20:ed:23:7e:a3:59:f9:
         67:fa:c2:69:12:be:f7:55:d3:30:3d:04:fc:f8:5e:69:2f:f0:
         a0:8f:cd:10:8f:49:e7:c9:47:ee:c4:14:ca:58:74:fb:86:04:
         4e:d2:e7:8d:03:c0:03:55:8c:7b:76:7f:84:75:d1:56:15:f8:
         33:03:e3:2e:eb:4c:1c:9a:1f:9d:41:19:17:92:ed:01:4e:c5:
         a3:66:3a:72:da:26:61:8e:ff:99:76:52:6f:b6:92:00:c9:c5:
         8c:a3:05:4b:c9:f4:77:8f:e9:3d:67:ef:d6:f8:cc:bc:be:7e:
         ab:46:f3:8a:a1:d8:5a:21:e0:ef:ab:98:18:88:19:51:24:74:
         46:c4:98:5e:e3:aa:1c:04:b3:9c:45:ef:e8:cf:9f:b5:37:75:
         43:96:49:47:a5:14:40:1f:cb:00:c3:8b:98:ed:50:80:c4:d2:
         58:fb:6a:bf:32:3c:8b:fe:01:ed:b6:59:b1:a8:c2:b0:8c:ea:
         aa:16:a7:2e:26:97:f3:70:62:08:13:d9:7a:45:fa:1a:79:b9:
         ab:dc:52:ec:f9:5f:2c:42:b8:49:3b:1a:3a:d3:0b:6f:0c:14:
         9f:76:eb:a1:2e:9b:7e:e4:92:52:62:16:8e:50:ef:3b:e3:67:
         53:a9:43:35:9d:28:36:18:49:ea:97:59:a2:28:3a:f9:29:eb:
         9b:9d:31:81:55:e7:3b:6f:7e:c3:b4:3f:9c:5b:f6:cb:0a:28:
         51:d9:a9:6c:ee:f9:24:7e:52:0f:b0:44:64:fc:90:5d:c9:3a:
         a2:36:3f:fb:59:45:44:16:5c:67:21:38:d5:f4:b1:04:8d:9c:
         a0:4a:c0:89:3d:40:0a:71:6d:72:5e:e0:fb:3d:ea:20:4b:d2:
         95:40:28:08:e5:a7:a8:6b:94:36:34:1f:da:6b:ec:29:a8:25:
         62:9a:d7:b4:e1:11:4c:01:f7:02:7f:77:3c:1e:5a:2c:93:5d:
         3e:3f:7f:7f:ef:a7:bd:8b
-----BEGIN CERTIFICATE-----
MIIGMDCCBBigAwIBAgIBAjANBgkqhkiG9w0BAQsFADCBoTESMBAGCgmSJomT8ixk
ARkWAmlvMSAwHgYKCZImiZPyLGQBGRYQaW50ZWdyYXRpb24tdGVzdDELMAkGA1UE
BhMCREUxDzANBgNVBAgMBlV0b3BpYTEOMAwGA1UECgwFREMvT1MxGDAWBgNVBAsM
D0Jyb2dyYW1tZXIgVW5pdDEhMB8GA1UEAwwYSW50ZWdyYXRpb24gVGVzdCBSb290
IENBMB4XDTE3MDIxNTIwMjgwMFoXDTIwMDIxNTIwMjgwMFowgawxEjAQBgoJkiaJ
k/IsZAEZFgJpbzEgMB4GCgmSJomT8ixkARkWEGludGVncmF0aW9uLXRlc3QxCzAJ
BgNVBAYTAkRFMQ8wDQYDVQQIDAZVdG9waWExDjAMBgNVBAoMBURDL09TMRgwFgYD
VQQLDA9Ccm9ncmFtbWVyIFVuaXQxLDAqBgNVBAMMI0ludGVncmF0aW9uIFRlc3Qg
SW50ZXJtZWRpYXRlIENBIDAxMIICIjANBgkqhkiG9w0BAQEFAAOCAg8AMIICCgKC
AgEAxRnhISszhtn7PpR3BXUpiUjwJlq05PJQXGtUURZittfYompRsTR4CSje4BJv
rr5Nnlnv3eAycy+dwxU9SYEK/qqc/gSPF2odxyHz5F49YjB1jWbb7VOiLNHF4eW2
LREHtUmiT7BmL9sEaypcVJqCi9WbDdlp7IpBW5mrwY6Sg3J1FhRhA2dEm8OpkaX5
5cGvKjXItiEY0/RTycCobFdhznwXw4iAMxRT02cvTx6+mgq+/LyNVsVov9GVPCSD
KqopcVRvN2tytdaMZL2ys5djQ6jPqzKQfhnteqGOXuR701xWt7wWw3KHISqIgXsE
+KSpsmytiGph+LnAa5Wspy+8xpoeDoeGxZl5zO3/3LvB8rPN8lfjAhU95ZaszRT+
NwdovWavs9L5rchWA4sp3fvLAhac3v8yyWmyipnChaxSmOZarVxVGLF8PYHwrsML
Qcu4XelT2u4jzOibf5xJPxLTh1yDIpVoIjQ0sA5Huw1+CeVNlR5TWlaGdP7h5XWZ
8/0mSUctvxTWNd3SbUhJ7mZcvJGOD4WJW9ESD+voDbO/3dy9HmxaEc89HlNMlshU
z0cwmiz1nfdF22CqZ16n1Ea5LtGGRs7PK9a0LBTpjF3VIJvb1MzKazb1dSiQa9p0
95QroxUKL795t3X4Xvh8hzlg9cQYLUpF8AFwmglC/F07KecCAwEAAaNmMGQwHQYD
VR0OBBYEFGmyWA9FyPJiBNMJFKgE/omwoqDOMB8GA1UdIwQYMBaAFM17AVU/OQGj
+0nU/jI4TkJJYjopMBIGA1UdEwEB/wQIMAYBAf8CAQEwDgYDVR0PAQH/BAQDAgGG
MA0GCSqGSIb3DQEBCwUAA4ICAQABg/ITeWpnBkJP1sgX5lDquBRcS6BUHpM7/MDZ
FBGVaeVqZTtk+RRl4g3yivcr6tUziKmunDrbFgvSmp3qjLSUHbHruhmRNhHjjhNL
bXoEkFDiLNEkxdIRWeYSVa064kmvbVMFfpT0opkxXJSGByKcHWsomnId2CkOprnF
WClztKwds29HXrjlkSDtI36jWfln+sJpEr73VdMwPQT8+F5pL/Cgj80Qj0nnyUfu
xBTKWHT7hgRO0ueNA8ADVYx7dn+EddFWFfgzA+Mu60wcmh+dQRkXku0BTsWjZjpy
2iZhjv+ZdlJvtpIAycWMowVLyfR3j+k9Z+/W+My8vn6rRvOKodhaIeDvq5gYiBlR
JHRGxJhe46ocBLOcRe/oz5+1N3VDlklHpRRAH8sAw4uY7VCAxNJY+2q/MjyL/gHt
tlmxqMKwjOqqFqcuJpfzcGIIE9l6Rfoaebmr3FLs+V8sQrhJOxo60wtvDBSfduuh
Lpt+5JJSYhaOUO8742dTqUM1nSg2GEnql1miKDr5KeubnTGBVec7b37DtD+cW/bL
CihR2als7vkkflIPsERk/JBdyTqiNj/7WUVEFlxnITjV9LEEjZygSsCJPUAKcW1y
XuD7PeogS9KVQCgI5aeoa5Q2NB/aa+wpqCVimte04RFMAfcCf3c8Hlosk10+P39/
76e9iw==
-----END CERTIFICATE-----
Certificate:
    Data:
        Version: 3 (0x2)
        Serial Number: 1 (0x1)
    Signature Algorithm: sha256WithRSAEncryption
        Issuer: DC=io, DC=integration-test, C=DE, ST=Utopia, O=DC/OS, OU=Brogrammer Unit, CN=Integration Test Root CA
        Validity
            Not Before: Feb 15 20:28:00 2017 GMT
            Not After : Feb 15 20:28:00 2020 GMT
        Subject: DC=io, DC=integration-test, C=DE, ST=Utopia, O=DC/OS, OU=Brogrammer Unit, CN=Integration Test Root CA
        Subject Public Key Info:
            Public Key Algorithm: rsaEncryption
                Public-Key: (4096 bit)
                Modulus:
                    00:a6:87:62:49:7b:2f:91:c1:8c:4c:53:05:44:18:
                    09:8d:72:56:2b:7a:4d:ed:35:d2:29:72:fb:7c:af:
                    e0:63:fa:13:74:02:a1:18:e5:e4:bb:8b:b4:e0:cc:
                    96:fd:3e:8c:2f:bf:b0:ce:3c:29:a2:29:d7:e0:a2:
                    ce:19:d8:1f:36:f7:ec:32:71:33:30:38:98:b0:7d:
                    48:cd:c1:09:30:b0:a7:01:5f:65:d4:fd:1e:07:9b:
                    fc:8f:9b:57:63:e0:1c:e3:10:18:33:0d:24:d9:87:
                    c4:1b:67:b7:df:49:4f:2c:3c:f9:e0:f1:df:da:7d:
                    5d:66:20:f8:eb:bc:e5:06:28:f1:6b:eb:bf:54:f7:
                    2f:39:98:37:ba:37:63:d5:fa:a8:ac:f3:f0:5a:09:
                    f9:e4:6f:b9:9a:6d:30:68:0d:1d:68:1d:84:12:5a:
                    f5:d3:3e:7d:71:38:26:88:ea:23:8e:4a:ea:98:84:
                    52:92:ba:88:29:b5:00:66:98:26:bf:19:e5:4c:05:
                    70:35:a5:ba:56:fb:06:ff:b5:42:3b:2d:9d:46:46:
                    c3:ec:02:a6:60:17:c2:ae:22:c3:7b:ad:62:37:71:
                    09:02:77:54:f4:16:7e:8e:c9:0e:07:6f:31:b3:31:
                    65:75:de:68:cd:50:5f:02:30:79:e0:3b:52:57:57:
                    3b:c1:cf:83:a1:25:2d:32:e1:f1:90:84:cd:e2:23:
                    6f:ad:2a:63:3e:e8:94:21:b6:b4:12:ae:77:98:5c:
                    5c:93:91:f3:f5:e3:a3:d5:56:68:2d:18:c3:cd:2e:
                    71:78:34:a1:41:6a:8d:55:d2:dc:1b:1e:52:f1:e1:
                    c2:09:7f:2e:cc:6e:c5:dd:d5:2a:cd:fa:47:96:2d:
                    62:cf:d2:3b:47:0f:a7:d5:88:2d:b9:24:f4:5b:b3:
                    5f:15:43:52:d5:6a:65:68:fe:76:95:08:b3:ff:fa:
                    c1:65:83:a6:4a:6b:3a:50:7b:aa:03:90:35:3f:e8:
                    e5:ac:6e:09:d3:e7:8b:8b:34:04:86:f7:40:5d:f9:
                    94:30:86:57:80:88:3d:b9:2c:ab:7a:de:5e:8f:82:
                    f9:4e:86:5a:63:5a:b2:1e:c8:95:15:1a:04:e9:07:
                    2a:2f:14:8b:b3:b6:ab:60:70:9f:f1:ba:85:07:3c:
                    60:9b:42:af:cc:39:c7:01:dc:19:ac:12:ad:f9:0c:
                    8a:7d:ae:9a:d4:38:94:09:b0:c9:41:d9:d0:09:7f:
                    7d:c5:23:16:e1:80:42:6b:8e:9b:b0:bd:88:ad:c8:
                    0f:81:04:90:bd:3e:b9:dd:50:9c:ac:a3:e9:d3:d8:
                    60:5b:2f:47:fa:a9:88:67:56:50:10:50:74:6e:19:
                    3e:cf:79
                Exponent: 65537 (0x10001)
        X509v3 extensions:
            X509v3 Subject Key Identifier: 
                CD:7B:01:55:3F:39:01:A3:FB:49:D4:FE:32:38:4E:42:49:62:3A:29
            X509v3 Authority Key Identifier: 
                keyid:CD:7B:01:55:3F:39:01:A3:FB:49:D4:FE:32:38:4E:42:49:62:3A:29

            X509v3 Basic Constraints: critical
                CA:TRUE
            X509v3 Key Usage: critical
                Digital Signature, Certificate Sign, CRL Sign
    Signature Algorithm: sha256WithRSAEncryption
         16:6a:ac:98:3b:a6:9f:c0:52:0f:e9:4e:1f:cd:cf:4d:17:78:
         a6:0c:94:e0:ca:85:a1:94:18:39:63:c0:ec:51:c9:63:e2:b9:
         d9:74:94:13:2a:c7:a7:17:8c:a6:ed:ec:64:73:3a:d3:78:90:
         05:4a:27:b7:be:69:61:31:d2:81:0d:fa:0e:e9:7e:25:3f:73:
         0a:82:40:f2:b8:58:f7:8e:c6:c8:f1:70:02:be:fc:d8:95:2c:
         b0:29:45:69:59:2c:92:c0:3c:d7:b8:ce:f4:85:41:a4:40:b7:
         50:b5:ee:35:a7:16:2f:3a:ac:83:28:74:6d:6d:7b:99:84:b0:
         18:ee:94:b8:a6:2d:95:ad:80:93:f4:e2:3b:66:b2:2d:9e:a0:
         3a:a0:57:49:ff:82:4c:eb:7d:e1:97:df:bd:14:84:48:3d:fa:
         e7:70:9c:e8:d1:6b:6a:43:20:05:7e:36:01:aa:a2:bc:be:5b:
         63:3b:47:00:fe:77:2a:34:76:c1:98:a7:f2:4e:16:d8:b5:01:
         90:bc:f9:25:3e:d2:c2:56:d7:c2:24:9d:e5:5d:5c:ab:80:dc:
         04:4f:ed:77:69:e8:9d:40:ea:33:dc:99:cc:f1:f5:72:04:53:
         d5:2b:bf:f9:b9:3d:c8:94:6a:80:fd:3d:3c:48:e4:86:76:fa:
         04:c7:bb:51:63:95:81:45:6b:26:14:c5:e7:c9:92:9e:29:05:
         87:9c:2e:27:df:bd:0e:53:31:7f:8e:7c:eb:9c:6a:d5:36:ec:
         15:de:cf:47:6e:ae:f6:bc:6e:f1:6f:4c:0b:67:f3:6a:ce:5d:
         78:7e:82:c0:91:7d:0c:05:05:e0:b3:04:fa:46:0f:95:92:e0:
         84:34:0b:20:1b:ca:74:2c:7f:f4:ab:6f:1c:ad:39:d6:ca:6f:
         86:b9:b5:66:85:a9:45:78:a1:71:a0:21:3a:a6:06:98:27:28:
         5b:0f:5f:34:4a:5b:60:e2:2f:2e:41:bb:73:cb:57:31:b8:75:
         24:d7:68:10:ea:17:77:37:12:ac:27:43:85:13:eb:42:92:05:
         d6:fe:88:24:c6:56:29:1d:20:76:57:37:83:50:f9:0a:9f:b7:
         23:42:14:d0:ee:49:d9:86:6a:d7:ee:bd:d7:c6:f0:73:53:89:
         34:0b:5f:82:ae:96:4e:3e:16:8b:ea:bd:1e:ef:da:5f:66:a0:
         bc:6c:1e:25:de:22:10:01:e3:6e:b1:81:d1:81:bd:0f:f8:60:
         aa:d6:17:82:a5:d5:31:72:1f:f1:de:45:c9:46:21:b9:14:8f:
         50:1e:1a:35:a9:90:61:83:a2:02:90:05:81:aa:76:fe:21:ce:
         24:92:56:bd:c5:6f:2a:a4
-----BEGIN CERTIFICATE-----
MIIGIjCCBAqgAwIBAgIBATANBgkqhkiG9w0BAQsFADCBoTESMBAGCgmSJomT8ixk
ARkWAmlvMSAwHgYKCZImiZPyLGQBGRYQaW50ZWdyYXRpb24tdGVzdDELMAkGA1UE
BhMCREUxDzANBgNVBAgMBlV0b3BpYTEOMAwGA1UECgwFREMvT1MxGDAWBgNVBAsM
D0Jyb2dyYW1tZXIgVW5pdDEhMB8GA1UEAwwYSW50ZWdyYXRpb24gVGVzdCBSb290
IENBMB4XDTE3MDIxNTIwMjgwMFoXDTIwMDIxNTIwMjgwMFowgaExEjAQBgoJkiaJ
k/IsZAEZFgJpbzEgMB4GCgmSJomT8ixkARkWEGludGVncmF0aW9uLXRlc3QxCzAJ
BgNVBAYTAkRFMQ8wDQYDVQQIDAZVdG9waWExDjAMBgNVBAoMBURDL09TMRgwFgYD
VQQLDA9Ccm9ncmFtbWVyIFVuaXQxITAfBgNVBAMMGEludGVncmF0aW9uIFRlc3Qg
Um9vdCBDQTCCAiIwDQYJKoZIhvcNAQEBBQADggIPADCCAgoCggIBAKaHYkl7L5HB
jExTBUQYCY1yVit6Te010ily+3yv4GP6E3QCoRjl5LuLtODMlv0+jC+/sM48KaIp
1+CizhnYHzb37DJxMzA4mLB9SM3BCTCwpwFfZdT9Hgeb/I+bV2PgHOMQGDMNJNmH
xBtnt99JTyw8+eDx39p9XWYg+Ou85QYo8Wvrv1T3LzmYN7o3Y9X6qKzz8FoJ+eRv
uZptMGgNHWgdhBJa9dM+fXE4JojqI45K6piEUpK6iCm1AGaYJr8Z5UwFcDWlulb7
Bv+1QjstnUZGw+wCpmAXwq4iw3utYjdxCQJ3VPQWfo7JDgdvMbMxZXXeaM1QXwIw
eeA7UldXO8HPg6ElLTLh8ZCEzeIjb60qYz7olCG2tBKud5hcXJOR8/Xjo9VWaC0Y
w80ucXg0oUFqjVXS3BseUvHhwgl/Lsxuxd3VKs36R5YtYs/SO0cPp9WILbkk9Fuz
XxVDUtVqZWj+dpUIs//6wWWDpkprOlB7qgOQNT/o5axuCdPni4s0BIb3QF35lDCG
V4CIPbksq3reXo+C+U6GWmNash7IlRUaBOkHKi8Ui7O2q2Bwn/G6hQc8YJtCr8w5
xwHcGawSrfkMin2umtQ4lAmwyUHZ0Al/fcUjFuGAQmuOm7C9iK3ID4EEkL0+ud1Q
nKyj6dPYYFsvR/qpiGdWUBBQdG4ZPs95AgMBAAGjYzBhMB0GA1UdDgQWBBTNewFV
PzkBo/tJ1P4yOE5CSWI6KTAfBgNVHSMEGDAWgBTNewFVPzkBo/tJ1P4yOE5CSWI6
KTAPBgNVHRMBAf8EBTADAQH/MA4GA1UdDwEB/wQEAwIBhjANBgkqhkiG9w0BAQsF
AAOCAgEAFmqsmDumn8BSD+lOH83PTRd4pgyU4MqFoZQYOWPA7FHJY+K52XSUEyrH
pxeMpu3sZHM603iQBUont75pYTHSgQ36Dul+JT9zCoJA8rhY947GyPFwAr782JUs
sClFaVksksA817jO9IVBpEC3ULXuNacWLzqsgyh0bW17mYSwGO6UuKYtla2Ak/Ti
O2ayLZ6gOqBXSf+CTOt94ZffvRSESD3653Cc6NFrakMgBX42AaqivL5bYztHAP53
KjR2wZin8k4W2LUBkLz5JT7SwlbXwiSd5V1cq4DcBE/td2nonUDqM9yZzPH1cgRT
1Su/+bk9yJRqgP09PEjkhnb6BMe7UWOVgUVrJhTF58mSnikFh5wuJ9+9DlMxf458
65xq1TbsFd7PR26u9rxu8W9MC2fzas5deH6CwJF9DAUF4LME+kYPlZLghDQLIBvK
dCx/9KtvHK051spvhrm1ZoWpRXihcaAhOqYGmCcoWw9fNEpbYOIvLkG7c8tXMbh1
JNdoEOoXdzcSrCdDhRPrQpIF1v6IJMZWKR0gdlc3g1D5Cp+3I0IU0O5J2YZq1+69
18bwc1OJNAtfgq6WTj4Wi+q9Hu/aX2agvGweJd4iEAHjbrGB0YG9D/hgqtYXgqXV
MXIf8d5FyUYhuRSPUB4aNamQYYOiApAFgap2/iHOJJJWvcVvKqQ=
-----END CERTIFICATE-----
